; Function Attrs: mustprogress uwtable
define void @_ZN8proxygen13SessionHolder22onDeactivateConnectionERKNS_15HTTPSessionBaseE(ptr noundef nonnull align 8 dereferenceable(152) %this, ptr noundef nonnull align 8 dereferenceable(1582) %sess) unnamed_addr #3 align 2 {
entry:
  %stats_ = getelementptr inbounds i8, ptr %this, i64 56
  %0 = load ptr, ptr %stats_, align 8
  %tobool.not = icmp eq ptr %0, null
  br i1 %tobool.not, label %if.end, label %if.then

if.then:                                          ; preds = %entry
  %vtable = load ptr, ptr %0, align 8
  %vfn = getelementptr inbounds i8, ptr %vtable, i64 40
  %1 = load ptr, ptr %vfn, align 8
  tail call void %1(ptr noundef nonnull align 8 dereferenceable(8) %0)
  br label %if.end

if.end:                                           ; preds = %if.then, %entry
  %originalSessionInfoCb_ = getelementptr inbounds i8, ptr %this, i64 144
  %2 = load ptr, ptr %originalSessionInfoCb_, align 8
  %tobool3.not = icmp eq ptr %2, null
  br i1 %tobool3.not, label %if.end8, label %if.then4

if.then4:                                         ; preds = %if.end
  %vtable6 = load ptr, ptr %2, align 8
  %vfn7 = getelementptr inbounds i8, ptr %vtable6, i64 112
  %3 = load ptr, ptr %vfn7, align 8
  tail call void %3(ptr noundef nonnull align 8 dereferenceable(8) %2, ptr noundef nonnull align 8 dereferenceable(1582) %sess)
  br label %if.end8

if.end8:                                          ; preds = %if.then4, %if.end
  tail call void @_ZN8proxygen13SessionHolder25handleTransactionDetachedEv(ptr noundef nonnull align 8 dereferenceable(152) %this)
  ret void
}